; ModuleID = 'source-C-CXX/41/1100.cpp'
source_filename = "source-C-CXX/41/1100.cpp"
target datalayout = "e-m:e-p270:32:32-p271:32:32-p272:64:64-i64:64-f80:128-n8:16:32:64-S128"
target triple = "x86_64-pc-linux-gnu"

%"class.std::ios_base::Init" = type { i8 }
%"class.std::basic_istream" = type { i32 (...)**, i64, %"class.std::basic_ios" }
%"class.std::basic_ios" = type { %"class.std::ios_base", %"class.std::basic_ostream"*, i8, i8, %"class.std::basic_streambuf"*, %"class.std::ctype"*, %"class.std::num_put"*, %"class.std::num_get"* }
%"class.std::ios_base" = type { i32 (...)**, i64, i64, i32, i32, i32, %"struct.std::ios_base::_Callback_list"*, %"struct.std::ios_base::_Words", [8 x %"struct.std::ios_base::_Words"], i32, %"struct.std::ios_base::_Words"*, %"class.std::locale" }
%"struct.std::ios_base::_Callback_list" = type { %"struct.std::ios_base::_Callback_list"*, void (i32, %"class.std::ios_base"*, i32)*, i32, i32 }
%"struct.std::ios_base::_Words" = type { i8*, i64 }
%"class.std::locale" = type { %"class.std::locale::_Impl"* }
%"class.std::locale::_Impl" = type { i32, %"class.std::locale::facet"**, i64, %"class.std::locale::facet"**, i8** }
%"class.std::locale::facet" = type <{ i32 (...)**, i32, [4 x i8] }>
%"class.std::basic_ostream" = type { i32 (...)**, %"class.std::basic_ios" }
%"class.std::basic_streambuf" = type { i32 (...)**, i8*, i8*, i8*, i8*, i8*, i8*, %"class.std::locale" }
%"class.std::ctype" = type <{ %"class.std::locale::facet.base", [4 x i8], %struct.__locale_struct*, i8, [7 x i8], i32*, i32*, i16*, i8, [256 x i8], [256 x i8], i8, [6 x i8] }>
%"class.std::locale::facet.base" = type <{ i32 (...)**, i32 }>
%struct.__locale_struct = type { [13 x %struct.__locale_data*], i16*, i32*, i32*, [13 x i8*] }
%struct.__locale_data = type opaque
%"class.std::num_put" = type { %"class.std::locale::facet.base", [4 x i8] }
%"class.std::num_get" = type { %"class.std::locale::facet.base", [4 x i8] }

@_ZStL8__ioinit = internal global %"class.std::ios_base::Init" zeroinitializer, align 1
@__dso_handle = external hidden global i8
@_ZSt3cin = external global %"class.std::basic_istream", align 8
@_ZSt4cout = external global %"class.std::basic_ostream", align 8
@.str = private unnamed_addr constant [2 x i8] c" \00", align 1
@llvm.global_ctors = appending global [1 x { i32, void ()*, i8* }] [{ i32, void ()*, i8* } { i32 65535, void ()* @_GLOBAL__sub_I_1100.cpp, i8* null }]

declare void @_ZNSt8ios_base4InitC1Ev(%"class.std::ios_base::Init"* nonnull align 1 dereferenceable(1)) unnamed_addr #0

; Function Attrs: nounwind
declare void @_ZNSt8ios_base4InitD1Ev(%"class.std::ios_base::Init"* nonnull align 1 dereferenceable(1)) unnamed_addr #1

; Function Attrs: nofree nounwind
declare i32 @__cxa_atexit(void (i8*)*, i8*, i8*) local_unnamed_addr #2

; Function Attrs: mustprogress norecurse sspstrong uwtable
define dso_local i32 @main() local_unnamed_addr #3 {
  %1 = alloca [100000 x i32], align 16
  %2 = alloca i32, align 4
  %3 = alloca i32, align 4
  %4 = bitcast [100000 x i32]* %1 to i8*
  call void @llvm.lifetime.start.p0i8(i64 400000, i8* nonnull %4) #7
  call void @llvm.memset.p0i8.i64(i8* noundef nonnull align 16 dereferenceable(400000) %4, i8 0, i64 400000, i1 false)
  %5 = bitcast i32* %2 to i8*
  call void @llvm.lifetime.start.p0i8(i64 4, i8* nonnull %5) #7
  %6 = bitcast i32* %3 to i8*
  call void @llvm.lifetime.start.p0i8(i64 4, i8* nonnull %6) #7
  %7 = call nonnull align 8 dereferenceable(16) %"class.std::basic_istream"* @_ZNSirsERi(%"class.std::basic_istream"* nonnull align 8 dereferenceable(16) @_ZSt3cin, i32* nonnull align 4 dereferenceable(4) %2)
  %8 = load i32, i32* %2, align 4, !tbaa !5
  %9 = icmp sgt i32 %8, 0
  br i1 %9, label %10, label %18

10:                                               ; preds = %0, %10
  %11 = phi i64 [ %14, %10 ], [ 0, %0 ]
  %12 = getelementptr inbounds [100000 x i32], [100000 x i32]* %1, i64 0, i64 %11
  %13 = call nonnull align 8 dereferenceable(16) %"class.std::basic_istream"* @_ZNSirsERi(%"class.std::basic_istream"* nonnull align 8 dereferenceable(16) @_ZSt3cin, i32* nonnull align 4 dereferenceable(4) %12)
  %14 = add nuw nsw i64 %11, 1
  %15 = load i32, i32* %2, align 4, !tbaa !5
  %16 = sext i32 %15 to i64
  %17 = icmp slt i64 %14, %16
  br i1 %17, label %10, label %18, !llvm.loop !9

18:                                               ; preds = %10, %0
  %19 = call nonnull align 8 dereferenceable(16) %"class.std::basic_istream"* @_ZNSirsERi(%"class.std::basic_istream"* nonnull align 8 dereferenceable(16) @_ZSt3cin, i32* nonnull align 4 dereferenceable(4) %3)
  %20 = load i32, i32* %2, align 4, !tbaa !5
  %21 = load i32, i32* %3, align 4
  %22 = add i32 %20, -1
  %23 = icmp sgt i32 %20, 0
  br i1 %23, label %24, label %26

24:                                               ; preds = %18
  %25 = sext i32 %22 to i64
  br label %30

26:                                               ; preds = %113, %18
  %27 = phi i32 [ 0, %18 ], [ %114, %113 ]
  %28 = xor i32 %27, -1
  %29 = icmp eq i32 %20, %27
  br i1 %29, label %137, label %119

30:                                               ; preds = %24, %113
  %31 = phi i32 [ %116, %113 ], [ 0, %24 ]
  %32 = phi i32 [ %114, %113 ], [ 0, %24 ]
  %33 = sext i32 %31 to i64
  %34 = getelementptr inbounds [100000 x i32], [100000 x i32]* %1, i64 0, i64 %33
  %35 = load i32, i32* %34, align 4, !tbaa !5
  %36 = icmp eq i32 %21, %35
  br i1 %36, label %37, label %113

37:                                               ; preds = %30
  %38 = icmp slt i32 %31, %22
  br i1 %38, label %39, label %110

39:                                               ; preds = %37
  %40 = sub nsw i64 %25, %33
  %41 = icmp ult i64 %40, 8
  br i1 %41, label %101, label %42

42:                                               ; preds = %39
  %43 = and i64 %40, -8
  %44 = add nsw i64 %43, %33
  %45 = add nsw i64 %43, -8
  %46 = lshr exact i64 %45, 3
  %47 = add nuw nsw i64 %46, 1
  %48 = and i64 %47, 1
  %49 = icmp eq i64 %45, 0
  br i1 %49, label %83, label %50

50:                                               ; preds = %42
  %51 = and i64 %47, 4611686018427387902
  br label %52

52:                                               ; preds = %52, %50
  %53 = phi i64 [ 0, %50 ], [ %80, %52 ]
  %54 = phi i64 [ %51, %50 ], [ %81, %52 ]
  %55 = add i64 %53, %33
  %56 = add nsw i64 %55, 1
  %57 = getelementptr inbounds [100000 x i32], [100000 x i32]* %1, i64 0, i64 %56
  %58 = bitcast i32* %57 to <4 x i32>*
  %59 = load <4 x i32>, <4 x i32>* %58, align 4, !tbaa !5
  %60 = getelementptr inbounds i32, i32* %57, i64 4
  %61 = bitcast i32* %60 to <4 x i32>*
  %62 = load <4 x i32>, <4 x i32>* %61, align 4, !tbaa !5
  %63 = getelementptr inbounds [100000 x i32], [100000 x i32]* %1, i64 0, i64 %55
  %64 = bitcast i32* %63 to <4 x i32>*
  store <4 x i32> %59, <4 x i32>* %64, align 4, !tbaa !5
  %65 = getelementptr inbounds i32, i32* %63, i64 4
  %66 = bitcast i32* %65 to <4 x i32>*
  store <4 x i32> %62, <4 x i32>* %66, align 4, !tbaa !5
  %67 = or i64 %53, 8
  %68 = add i64 %67, %33
  %69 = add nsw i64 %68, 1
  %70 = getelementptr inbounds [100000 x i32], [100000 x i32]* %1, i64 0, i64 %69
  %71 = bitcast i32* %70 to <4 x i32>*
  %72 = load <4 x i32>, <4 x i32>* %71, align 4, !tbaa !5
  %73 = getelementptr inbounds i32, i32* %70, i64 4
  %74 = bitcast i32* %73 to <4 x i32>*
  %75 = load <4 x i32>, <4 x i32>* %74, align 4, !tbaa !5
  %76 = getelementptr inbounds [100000 x i32], [100000 x i32]* %1, i64 0, i64 %68
  %77 = bitcast i32* %76 to <4 x i32>*
  store <4 x i32> %72, <4 x i32>* %77, align 4, !tbaa !5
  %78 = getelementptr inbounds i32, i32* %76, i64 4
  %79 = bitcast i32* %78 to <4 x i32>*
  store <4 x i32> %75, <4 x i32>* %79, align 4, !tbaa !5
  %80 = add nuw i64 %53, 16
  %81 = add i64 %54, -2
  %82 = icmp eq i64 %81, 0
  br i1 %82, label %83, label %52, !llvm.loop !11

83:                                               ; preds = %52, %42
  %84 = phi i64 [ 0, %42 ], [ %80, %52 ]
  %85 = icmp eq i64 %48, 0
  br i1 %85, label %99, label %86

86:                                               ; preds = %83
  %87 = add i64 %84, %33
  %88 = add nsw i64 %87, 1
  %89 = getelementptr inbounds [100000 x i32], [100000 x i32]* %1, i64 0, i64 %88
  %90 = bitcast i32* %89 to <4 x i32>*
  %91 = load <4 x i32>, <4 x i32>* %90, align 4, !tbaa !5
  %92 = getelementptr inbounds i32, i32* %89, i64 4
  %93 = bitcast i32* %92 to <4 x i32>*
  %94 = load <4 x i32>, <4 x i32>* %93, align 4, !tbaa !5
  %95 = getelementptr inbounds [100000 x i32], [100000 x i32]* %1, i64 0, i64 %87
  %96 = bitcast i32* %95 to <4 x i32>*
  store <4 x i32> %91, <4 x i32>* %96, align 4, !tbaa !5
  %97 = getelementptr inbounds i32, i32* %95, i64 4
  %98 = bitcast i32* %97 to <4 x i32>*
  store <4 x i32> %94, <4 x i32>* %98, align 4, !tbaa !5
  br label %99

99:                                               ; preds = %83, %86
  %100 = icmp eq i64 %40, %43
  br i1 %100, label %110, label %101

101:                                              ; preds = %39, %99
  %102 = phi i64 [ %33, %39 ], [ %44, %99 ]
  br label %103

103:                                              ; preds = %101, %103
  %104 = phi i64 [ %105, %103 ], [ %102, %101 ]
  %105 = add nsw i64 %104, 1
  %106 = getelementptr inbounds [100000 x i32], [100000 x i32]* %1, i64 0, i64 %105
  %107 = load i32, i32* %106, align 4, !tbaa !5
  %108 = getelementptr inbounds [100000 x i32], [100000 x i32]* %1, i64 0, i64 %104
  store i32 %107, i32* %108, align 4, !tbaa !5
  %109 = icmp eq i64 %105, %25
  br i1 %109, label %110, label %103, !llvm.loop !13

110:                                              ; preds = %103, %99, %37
  %111 = add nsw i32 %32, 1
  %112 = add nsw i32 %31, -1
  br label %113

113:                                              ; preds = %30, %110
  %114 = phi i32 [ %111, %110 ], [ %32, %30 ]
  %115 = phi i32 [ %112, %110 ], [ %31, %30 ]
  %116 = add nsw i32 %115, 1
  %117 = sub nsw i32 %20, %114
  %118 = icmp slt i32 %116, %117
  br i1 %118, label %30, label %26, !llvm.loop !15

119:                                              ; preds = %26, %131
  %120 = phi i64 [ %133, %131 ], [ 0, %26 ]
  %121 = getelementptr inbounds [100000 x i32], [100000 x i32]* %1, i64 0, i64 %120
  %122 = load i32, i32* %121, align 4, !tbaa !5
  %123 = call nonnull align 8 dereferenceable(8) %"class.std::basic_ostream"* @_ZNSolsEi(%"class.std::basic_ostream"* nonnull align 8 dereferenceable(8) @_ZSt4cout, i32 %122)
  %124 = load i32, i32* %2, align 4, !tbaa !5
  %125 = add i32 %124, %28
  %126 = zext i32 %125 to i64
  %127 = icmp eq i64 %120, %126
  br i1 %127, label %131, label %128

128:                                              ; preds = %119
  %129 = call nonnull align 8 dereferenceable(8) %"class.std::basic_ostream"* @_ZSt16__ostream_insertIcSt11char_traitsIcEERSt13basic_ostreamIT_T0_ES6_PKS3_l(%"class.std::basic_ostream"* nonnull align 8 dereferenceable(8) @_ZSt4cout, i8* nonnull getelementptr inbounds ([2 x i8], [2 x i8]* @.str, i64 0, i64 0), i64 1)
  %130 = load i32, i32* %2, align 4, !tbaa !5
  br label %131

131:                                              ; preds = %119, %128
  %132 = phi i32 [ %124, %119 ], [ %130, %128 ]
  %133 = add nuw i64 %120, 1
  %134 = sub nsw i32 %132, %27
  %135 = zext i32 %134 to i64
  %136 = icmp eq i64 %133, %135
  br i1 %136, label %137, label %119, !llvm.loop !16

137:                                              ; preds = %131, %26
  call void @llvm.lifetime.end.p0i8(i64 4, i8* nonnull %6) #7
  call void @llvm.lifetime.end.p0i8(i64 4, i8* nonnull %5) #7
  call void @llvm.lifetime.end.p0i8(i64 400000, i8* nonnull %4) #7
  ret i32 0
}

; Function Attrs: argmemonly mustprogress nofree nosync nounwind willreturn
declare void @llvm.lifetime.start.p0i8(i64 immarg, i8* nocapture) #4

; Function Attrs: argmemonly mustprogress nofree nounwind willreturn writeonly
declare void @llvm.memset.p0i8.i64(i8* nocapture writeonly, i8, i64, i1 immarg) #5

declare nonnull align 8 dereferenceable(16) %"class.std::basic_istream"* @_ZNSirsERi(%"class.std::basic_istream"* nonnull align 8 dereferenceable(16), i32* nonnull align 4 dereferenceable(4)) local_unnamed_addr #0

declare nonnull align 8 dereferenceable(8) %"class.std::basic_ostream"* @_ZNSolsEi(%"class.std::basic_ostream"* nonnull align 8 dereferenceable(8), i32) local_unnamed_addr #0

; Function Attrs: argmemonly mustprogress nofree nosync nounwind willreturn
declare void @llvm.lifetime.end.p0i8(i64 immarg, i8* nocapture) #4

declare nonnull align 8 dereferenceable(8) %"class.std::basic_ostream"* @_ZSt16__ostream_insertIcSt11char_traitsIcEERSt13basic_ostreamIT_T0_ES6_PKS3_l(%"class.std::basic_ostream"* nonnull align 8 dereferenceable(8), i8*, i64) local_unnamed_addr #0

; Function Attrs: sspstrong uwtable
define internal void @_GLOBAL__sub_I_1100.cpp() #6 section ".text.startup" {
  tail call void @_ZNSt8ios_base4InitC1Ev(%"class.std::ios_base::Init"* nonnull align 1 dereferenceable(1) @_ZStL8__ioinit)
  %1 = tail call i32 @__cxa_atexit(void (i8*)* bitcast (void (%"class.std::ios_base::Init"*)* @_ZNSt8ios_base4InitD1Ev to void (i8*)*), i8* getelementptr inbounds (%"class.std::ios_base::Init", %"class.std::ios_base::Init"* @_ZStL8__ioinit, i64 0, i32 0), i8* nonnull @__dso_handle) #7
  ret void
}


!llvm.module.flags = !{!0, !1, !2, !3}
!llvm.ident = !{!4}

!0 = !{i32 1, !"wchar_size", i32 4}
!1 = !{i32 7, !"PIC Level", i32 2}
!2 = !{i32 7, !"PIE Level", i32 2}
!3 = !{i32 7, !"uwtable", i32 1}
!4 = !{!"clang version 13.0.0"}
!5 = !{!6, !6, i64 0}
!6 = !{!"int", !7, i64 0}
!7 = !{!"omnipotent char", !8, i64 0}
!8 = !{!"Simple C++ TBAA"}
!9 = distinct !{!9, !10}
!10 = !{!"llvm.loop.mustprogress"}
!11 = distinct !{!11, !10, !12}
!12 = !{!"llvm.loop.isvectorized", i32 1}
!13 = distinct !{!13, !10, !14, !12}
!14 = !{!"llvm.loop.unroll.runtime.disable"}
!15 = distinct !{!15, !10}
!16 = distinct !{!16, !10}
